; Function Attrs: nounwind uwtable
define noalias ptr @png_malloc(ptr noalias noundef %0, i64 noundef %1) local_unnamed_addr #0 {
  %3 = icmp eq ptr %0, null
  br i1 %3, label %13, label %4

4:                                                ; preds = %2
  %5 = getelementptr inbounds nuw i8, ptr %0, i64 1064
  %6 = load ptr, ptr %5, align 8, !tbaa !37, !alias.scope !43
  %.not9.i = icmp eq ptr %6, null
  br i1 %.not9.i, label %9, label %7

7:                                                ; preds = %4
  %8 = tail call ptr %6(ptr noundef nonnull %0, i64 noundef %1) #12
  br label %png_malloc_base.exit

9:                                                ; preds = %4
  %10 = tail call noalias ptr @malloc(i64 noundef %1) #13
  br label %png_malloc_base.exit

png_malloc_base.exit:                             ; preds = %7, %9
  %.0.i = phi ptr [ %8, %7 ], [ %10, %9 ]
  %11 = icmp eq ptr %.0.i, null
  br i1 %11, label %12, label %13

12:                                               ; preds = %png_malloc_base.exit
  tail call void @png_error(ptr noundef nonnull %0, ptr noundef nonnull @.str.2) #14
  unreachable

13:                                               ; preds = %png_malloc_base.exit, %2
  %.0 = phi ptr [ null, %2 ], [ %.0.i, %png_malloc_base.exit ]
  ret ptr %.0
}